; Function Attrs: nounwind uwtable
define ptr @l_Lean_Elab_withSaveInfoContext___at_Lean_Elab_Command_liftTermElabM___spec__1___rarg___lambda__1(ptr noundef %0, ptr noundef %1, ptr noundef %2, ptr noundef %3, ptr noundef %4, ptr noundef %5, ptr noundef %6) local_unnamed_addr #0 {
  %8 = tail call ptr @l_Lean_Elab_CommandContextInfo_save___at_Lean_Elab_Term_withoutModifyingElabMetaStateWithInfo___spec__2(ptr noundef %0, ptr noundef %1, ptr noundef %2, ptr noundef %3, ptr noundef %4, ptr noundef %5, ptr noundef %6) #6
  %.val = load i32, ptr %8, align 4, !tbaa !4
  %9 = icmp eq i32 %.val, 1
  %10 = getelementptr inbounds nuw i8, ptr %8, i64 8
  %11 = load ptr, ptr %10, align 8, !tbaa !9
  br i1 %9, label %12, label %23

12:                                               ; preds = %7
  tail call void @lean_inc_heartbeat() #6
  %13 = tail call noalias ptr @mi_malloc_small(i64 noundef 16) #6
  %14 = icmp eq ptr %13, null
  br i1 %14, label %15, label %lean_alloc_ctor.exit

15:                                               ; preds = %12
  tail call void @lean_internal_panic_out_of_memory() #7
  unreachable

lean_alloc_ctor.exit:                             ; preds = %12
  %16 = getelementptr inbounds nuw i8, ptr %13, i64 4
  store i32 1, ptr %13, align 4, !tbaa !4
  store i32 65552, ptr %16, align 4
  %17 = getelementptr inbounds nuw i8, ptr %13, i64 8
  store ptr %11, ptr %17, align 8, !tbaa !9
  tail call void @lean_inc_heartbeat() #6
  %18 = tail call noalias ptr @mi_malloc_small(i64 noundef 16) #6
  %19 = icmp eq ptr %18, null
  br i1 %19, label %20, label %lean_alloc_ctor.exit32

20:                                               ; preds = %lean_alloc_ctor.exit
  tail call void @lean_internal_panic_out_of_memory() #7
  unreachable

lean_alloc_ctor.exit32:                           ; preds = %lean_alloc_ctor.exit
  %21 = getelementptr inbounds nuw i8, ptr %18, i64 4
  store i32 1, ptr %18, align 4, !tbaa !4
  store i32 16842768, ptr %21, align 4
  %22 = getelementptr inbounds nuw i8, ptr %18, i64 8
  store ptr %13, ptr %22, align 8, !tbaa !9
  store ptr %18, ptr %10, align 8, !tbaa !9
  br label %67

23:                                               ; preds = %7
  %24 = getelementptr inbounds nuw i8, ptr %8, i64 16
  %25 = load ptr, ptr %24, align 8, !tbaa !9
  %26 = ptrtoint ptr %25 to i64
  %27 = and i64 %26, 1
  %.not = icmp eq i64 %27, 0
  br i1 %.not, label %28, label %lean_inc.exit31

28:                                               ; preds = %23
  %.val.i = load i32, ptr %25, align 4, !tbaa !4
  %29 = icmp sgt i32 %.val.i, 0
  br i1 %29, label %30, label %32, !prof !13

30:                                               ; preds = %28
  %31 = add nuw i32 %.val.i, 1
  store i32 %31, ptr %25, align 4, !tbaa !4
  br label %lean_inc.exit31

32:                                               ; preds = %28
  %.not.i33 = icmp eq i32 %.val.i, 0
  br i1 %.not.i33, label %lean_inc.exit31, label %33

33:                                               ; preds = %32
  tail call void @lean_inc_ref_cold(ptr noundef nonnull %25) #6
  br label %lean_inc.exit31

lean_inc.exit31:                                  ; preds = %33, %32, %30, %23
  %34 = ptrtoint ptr %11 to i64
  %35 = and i64 %34, 1
  %.not40 = icmp eq i64 %35, 0
  br i1 %.not40, label %36, label %lean_inc.exit

36:                                               ; preds = %lean_inc.exit31
  %.val.i34 = load i32, ptr %11, align 4, !tbaa !4
  %37 = icmp sgt i32 %.val.i34, 0
  br i1 %37, label %38, label %40, !prof !13

38:                                               ; preds = %36
  %39 = add nuw i32 %.val.i34, 1
  store i32 %39, ptr %11, align 4, !tbaa !4
  br label %lean_inc.exit

40:                                               ; preds = %36
  %.not.i35 = icmp eq i32 %.val.i34, 0
  br i1 %.not.i35, label %lean_inc.exit, label %41

41:                                               ; preds = %40
  tail call void @lean_inc_ref_cold(ptr noundef nonnull %11) #6
  br label %lean_inc.exit

lean_inc.exit:                                    ; preds = %41, %40, %38, %lean_inc.exit31
  %42 = ptrtoint ptr %8 to i64
  %43 = and i64 %42, 1
  %.not41 = icmp eq i64 %43, 0
  br i1 %.not41, label %44, label %lean_dec.exit

44:                                               ; preds = %lean_inc.exit
  %45 = load i32, ptr %8, align 4, !tbaa !4
  %46 = icmp sgt i32 %45, 1
  br i1 %46, label %47, label %49, !prof !13

47:                                               ; preds = %44
  %48 = add nsw i32 %45, -1
  store i32 %48, ptr %8, align 4, !tbaa !4
  br label %lean_dec.exit

49:                                               ; preds = %44
  %.not.i = icmp eq i32 %45, 0
  br i1 %.not.i, label %lean_dec.exit, label %50

50:                                               ; preds = %49
  tail call void @lean_dec_ref_cold(ptr noundef nonnull %8) #6
  br label %lean_dec.exit

lean_dec.exit:                                    ; preds = %50, %49, %47, %lean_inc.exit
  tail call void @lean_inc_heartbeat() #6
  %51 = tail call noalias ptr @mi_malloc_small(i64 noundef 16) #6
  %52 = icmp eq ptr %51, null
  br i1 %52, label %53, label %lean_alloc_ctor.exit37

53:                                               ; preds = %lean_dec.exit
  tail call void @lean_internal_panic_out_of_memory() #7
  unreachable

lean_alloc_ctor.exit37:                           ; preds = %lean_dec.exit
  %54 = getelementptr inbounds nuw i8, ptr %51, i64 4
  store i32 1, ptr %51, align 4, !tbaa !4
  store i32 65552, ptr %54, align 4
  %55 = getelementptr inbounds nuw i8, ptr %51, i64 8
  store ptr %11, ptr %55, align 8, !tbaa !9
  tail call void @lean_inc_heartbeat() #6
  %56 = tail call noalias ptr @mi_malloc_small(i64 noundef 16) #6
  %57 = icmp eq ptr %56, null
  br i1 %57, label %58, label %lean_alloc_ctor.exit38

58:                                               ; preds = %lean_alloc_ctor.exit37
  tail call void @lean_internal_panic_out_of_memory() #7
  unreachable

lean_alloc_ctor.exit38:                           ; preds = %lean_alloc_ctor.exit37
  %59 = getelementptr inbounds nuw i8, ptr %56, i64 4
  store i32 1, ptr %56, align 4, !tbaa !4
  store i32 16842768, ptr %59, align 4
  %60 = getelementptr inbounds nuw i8, ptr %56, i64 8
  store ptr %51, ptr %60, align 8, !tbaa !9
  tail call void @lean_inc_heartbeat() #6
  %61 = tail call noalias ptr @mi_malloc_small(i64 noundef 24) #6
  %62 = icmp eq ptr %61, null
  br i1 %62, label %63, label %lean_alloc_ctor.exit39

63:                                               ; preds = %lean_alloc_ctor.exit38
  tail call void @lean_internal_panic_out_of_memory() #7
  unreachable

lean_alloc_ctor.exit39:                           ; preds = %lean_alloc_ctor.exit38
  %64 = getelementptr inbounds nuw i8, ptr %61, i64 4
  store i32 1, ptr %61, align 4, !tbaa !4
  store i32 131096, ptr %64, align 4
  %65 = getelementptr inbounds nuw i8, ptr %61, i64 8
  store ptr %56, ptr %65, align 8, !tbaa !9
  %66 = getelementptr inbounds nuw i8, ptr %61, i64 16
  store ptr %25, ptr %66, align 8, !tbaa !9
  br label %67

67:                                               ; preds = %lean_alloc_ctor.exit39, %lean_alloc_ctor.exit32
  %.0 = phi ptr [ %8, %lean_alloc_ctor.exit32 ], [ %61, %lean_alloc_ctor.exit39 ]
  ret ptr %.0
}